target datalayout = "e-m:e-p270:32:32-p271:32:32-p272:64:64-i64:64-i128:128-f80:128-n8:16:32:64-S128"
target triple = "x86_64-pc-linux-gnu"

%struct.used_atom = type { i32, ptr, i32, i32, %union.anon }
%union.anon = type { %struct.anon.1 }
%struct.anon.1 = type { i32, %struct.process_trailer_options, ptr, i32 }
%struct.process_trailer_options = type { i32, i32, i32, i32, i32, i32, i32, i32, ptr, ptr, ptr, ptr }
%struct.anon.4 = type { i32, i32 }

@.str.24 = private unnamed_addr constant [1 x i8] zeroinitializer, align 1
@git_gettext_enabled = external global i32, align 4
@.str.75 = private unnamed_addr constant [6 x i8] c"short\00", align 1
@.str.81 = private unnamed_addr constant [35 x i8] c"unrecognized %%(%.*s) argument: %s\00", align 1
@.str.84 = private unnamed_addr constant [7 x i8] c"short=\00", align 1
@.str.85 = private unnamed_addr constant [39 x i8] c"positive value expected '%s' in %%(%s)\00", align 1
@minimum_abbrev = external global i32, align 4

; Function Attrs: nounwind uwtable
define internal i32 @err_bad_arg(ptr noundef %0, ptr noundef %1, ptr noundef %2) #0 {
  %4 = alloca ptr, align 8
  %5 = alloca ptr, align 8
  %6 = alloca ptr, align 8
  %7 = alloca i64, align 8
  store ptr %0, ptr %4, align 8, !tbaa !36
  store ptr %1, ptr %5, align 8, !tbaa !13
  store ptr %2, ptr %6, align 8, !tbaa !13
  call void @llvm.lifetime.start.p0(i64 8, ptr %7) #11
  %8 = load ptr, ptr %5, align 8, !tbaa !13
  %9 = call ptr @strchrnul(ptr noundef %8, i32 noundef 58) #12
  %10 = load ptr, ptr %5, align 8, !tbaa !13
  %11 = ptrtoint ptr %9 to i64
  %12 = ptrtoint ptr %10 to i64
  %13 = sub i64 %11, %12
  store i64 %13, ptr %7, align 8, !tbaa !71
  %14 = load ptr, ptr %4, align 8, !tbaa !36
  %15 = call ptr @_(ptr noundef @.str.81)
  %16 = load i64, ptr %7, align 8, !tbaa !71
  %17 = trunc i64 %16 to i32
  %18 = load ptr, ptr %5, align 8, !tbaa !13
  %19 = load ptr, ptr %6, align 8, !tbaa !13
  call void (ptr, ptr, ...) @strbuf_addf(ptr noundef %14, ptr noundef %15, i32 noundef %17, ptr noundef %18, ptr noundef %19)
  call void @llvm.lifetime.end.p0(i64 8, ptr %7) #11
  ret i32 -1
}

; Function Attrs: inlinehint nounwind uwtable
define internal ptr @_(ptr noundef %0) #1 {
  %2 = alloca ptr, align 8
  %3 = alloca ptr, align 8
  store ptr %0, ptr %3, align 8, !tbaa !13
  %4 = load ptr, ptr %3, align 8, !tbaa !13
  %5 = load i8, ptr %4, align 1, !tbaa !14
  %6 = icmp ne i8 %5, 0
  br i1 %6, label %8, label %7

7:                                                ; preds = %1
  store ptr @.str.24, ptr %2, align 8
  br label %16

8:                                                ; preds = %1
  %9 = load i32, ptr @git_gettext_enabled, align 4, !tbaa !15
  %10 = icmp ne i32 %9, 0
  br i1 %10, label %13, label %11

11:                                               ; preds = %8
  %12 = load ptr, ptr %3, align 8, !tbaa !13
  store ptr %12, ptr %2, align 8
  br label %16

13:                                               ; preds = %8
  %14 = load ptr, ptr %3, align 8, !tbaa !13
  %15 = call ptr @dcgettext(ptr noundef null, ptr noundef %14, i32 noundef 5) #11
  store ptr %15, ptr %2, align 8
  br label %16

16:                                               ; preds = %13, %11, %7
  %17 = load ptr, ptr %2, align 8
  ret ptr %17
}

; Function Attrs: inlinehint nounwind uwtable
define internal i32 @strtoul_ui(ptr noundef %0, i32 noundef %1, ptr noundef %2) #1 {
  %4 = alloca i32, align 4
  %5 = alloca ptr, align 8
  %6 = alloca i32, align 4
  %7 = alloca ptr, align 8
  %8 = alloca i64, align 8
  %9 = alloca ptr, align 8
  %10 = alloca i32, align 4
  store ptr %0, ptr %5, align 8, !tbaa !13
  store i32 %1, ptr %6, align 4, !tbaa !15
  store ptr %2, ptr %7, align 8, !tbaa !217
  call void @llvm.lifetime.start.p0(i64 8, ptr %8) #11
  call void @llvm.lifetime.start.p0(i64 8, ptr %9) #11
  %11 = call ptr @__errno_location() #14
  store i32 0, ptr %11, align 4, !tbaa !15
  %12 = load ptr, ptr %5, align 8, !tbaa !13
  %13 = call ptr @strchr(ptr noundef %12, i32 noundef 45) #12
  %14 = icmp ne ptr %13, null
  br i1 %14, label %15, label %16

15:                                               ; preds = %3
  store i32 -1, ptr %4, align 4
  store i32 1, ptr %10, align 4
  br label %43

16:                                               ; preds = %3
  %17 = load ptr, ptr %5, align 8, !tbaa !13
  %18 = load i32, ptr %6, align 4, !tbaa !15
  %19 = call i64 @strtoul(ptr noundef %17, ptr noundef %9, i32 noundef %18) #11
  store i64 %19, ptr %8, align 8, !tbaa !71
  %20 = call ptr @__errno_location() #14
  %21 = load i32, ptr %20, align 4, !tbaa !15
  %22 = icmp ne i32 %21, 0
  br i1 %22, label %38, label %23

23:                                               ; preds = %16
  %24 = load ptr, ptr %9, align 8, !tbaa !13
  %25 = load i8, ptr %24, align 1, !tbaa !14
  %26 = sext i8 %25 to i32
  %27 = icmp ne i32 %26, 0
  br i1 %27, label %38, label %28

28:                                               ; preds = %23
  %29 = load ptr, ptr %9, align 8, !tbaa !13
  %30 = load ptr, ptr %5, align 8, !tbaa !13
  %31 = icmp eq ptr %29, %30
  br i1 %31, label %38, label %32

32:                                               ; preds = %28
  %33 = load i64, ptr %8, align 8, !tbaa !71
  %34 = trunc i64 %33 to i32
  %35 = zext i32 %34 to i64
  %36 = load i64, ptr %8, align 8, !tbaa !71
  %37 = icmp ne i64 %35, %36
  br i1 %37, label %38, label %39

38:                                               ; preds = %32, %28, %23, %16
  store i32 -1, ptr %4, align 4
  store i32 1, ptr %10, align 4
  br label %43

39:                                               ; preds = %32
  %40 = load i64, ptr %8, align 8, !tbaa !71
  %41 = trunc i64 %40 to i32
  %42 = load ptr, ptr %7, align 8, !tbaa !217
  store i32 %41, ptr %42, align 4, !tbaa !15
  store i32 0, ptr %4, align 4
  store i32 1, ptr %10, align 4
  br label %43

43:                                               ; preds = %39, %38, %15
  call void @llvm.lifetime.end.p0(i64 8, ptr %9) #11
  call void @llvm.lifetime.end.p0(i64 8, ptr %8) #11
  %44 = load i32, ptr %4, align 4
  ret i32 %44
}

; Function Attrs: inlinehint nounwind uwtable
define internal zeroext i1 @skip_prefix(ptr noundef %0, ptr noundef %1, ptr noundef %2) #1 {
  %4 = alloca i1, align 1
  %5 = alloca ptr, align 8
  %6 = alloca ptr, align 8
  %7 = alloca ptr, align 8
  store ptr %0, ptr %5, align 8, !tbaa !13
  store ptr %1, ptr %6, align 8, !tbaa !13
  store ptr %2, ptr %7, align 8, !tbaa !53
  br label %8

8:                                                ; preds = %16, %3
  %9 = load ptr, ptr %6, align 8, !tbaa !13
  %10 = load i8, ptr %9, align 1, !tbaa !14
  %11 = icmp ne i8 %10, 0
  br i1 %11, label %15, label %12

12:                                               ; preds = %8
  %13 = load ptr, ptr %5, align 8, !tbaa !13
  %14 = load ptr, ptr %7, align 8, !tbaa !53
  store ptr %13, ptr %14, align 8, !tbaa !13
  store i1 true, ptr %4, align 1
  br label %27

15:                                               ; preds = %8
  br label %16

16:                                               ; preds = %15
  %17 = load ptr, ptr %5, align 8, !tbaa !13
  %18 = getelementptr inbounds nuw i8, ptr %17, i32 1
  store ptr %18, ptr %5, align 8, !tbaa !13
  %19 = load i8, ptr %17, align 1, !tbaa !14
  %20 = sext i8 %19 to i32
  %21 = load ptr, ptr %6, align 8, !tbaa !13
  %22 = getelementptr inbounds nuw i8, ptr %21, i32 1
  store ptr %22, ptr %6, align 8, !tbaa !13
  %23 = load i8, ptr %21, align 1, !tbaa !14
  %24 = sext i8 %23 to i32
  %25 = icmp eq i32 %20, %24
  br i1 %25, label %8, label %26, !llvm.loop !55

26:                                               ; preds = %16
  store i1 false, ptr %4, align 1
  br label %27

27:                                               ; preds = %26, %12
  %28 = load i1, ptr %4, align 1
  ret i1 %28
}

; Function Attrs: nounwind uwtable
define internal i32 @oid_atom_parser(ptr noundef %0, ptr noundef %1, ptr noundef %2, ptr noundef %3) #0 {
  %5 = alloca i32, align 4
  %6 = alloca ptr, align 8
  %7 = alloca ptr, align 8
  %8 = alloca ptr, align 8
  %9 = alloca ptr, align 8
  store ptr %0, ptr %6, align 8, !tbaa !17
  store ptr %1, ptr %7, align 8, !tbaa !26
  store ptr %2, ptr %8, align 8, !tbaa !13
  store ptr %3, ptr %9, align 8, !tbaa !36
  %10 = load ptr, ptr %8, align 8, !tbaa !13
  %11 = icmp ne ptr %10, null
  br i1 %11, label %16, label %12

12:                                               ; preds = %4
  %13 = load ptr, ptr %7, align 8, !tbaa !26
  %14 = getelementptr inbounds nuw %struct.used_atom, ptr %13, i32 0, i32 4
  %15 = getelementptr inbounds nuw %struct.anon.4, ptr %14, i32 0, i32 0
  store i32 0, ptr %15, align 8, !tbaa !14
  br label %73

16:                                               ; preds = %4
  %17 = load ptr, ptr %8, align 8, !tbaa !13
  %18 = call i32 @strcmp(ptr noundef %17, ptr noundef @.str.75) #12
  %19 = icmp ne i32 %18, 0
  br i1 %19, label %24, label %20

20:                                               ; preds = %16
  %21 = load ptr, ptr %7, align 8, !tbaa !26
  %22 = getelementptr inbounds nuw %struct.used_atom, ptr %21, i32 0, i32 4
  %23 = getelementptr inbounds nuw %struct.anon.4, ptr %22, i32 0, i32 0
  store i32 2, ptr %23, align 8, !tbaa !14
  br label %72

24:                                               ; preds = %16
  %25 = load ptr, ptr %8, align 8, !tbaa !13
  %26 = call zeroext i1 @skip_prefix(ptr noundef %25, ptr noundef @.str.84, ptr noundef %8)
  br i1 %26, label %27, label %64

27:                                               ; preds = %24
  %28 = load ptr, ptr %7, align 8, !tbaa !26
  %29 = getelementptr inbounds nuw %struct.used_atom, ptr %28, i32 0, i32 4
  %30 = getelementptr inbounds nuw %struct.anon.4, ptr %29, i32 0, i32 0
  store i32 1, ptr %30, align 8, !tbaa !14
  %31 = load ptr, ptr %8, align 8, !tbaa !13
  %32 = load ptr, ptr %7, align 8, !tbaa !26
  %33 = getelementptr inbounds nuw %struct.used_atom, ptr %32, i32 0, i32 4
  %34 = getelementptr inbounds nuw %struct.anon.4, ptr %33, i32 0, i32 1
  %35 = call i32 @strtoul_ui(ptr noundef %31, i32 noundef 10, ptr noundef %34)
  %36 = icmp ne i32 %35, 0
  br i1 %36, label %43, label %37

37:                                               ; preds = %27
  %38 = load ptr, ptr %7, align 8, !tbaa !26
  %39 = getelementptr inbounds nuw %struct.used_atom, ptr %38, i32 0, i32 4
  %40 = getelementptr inbounds nuw %struct.anon.4, ptr %39, i32 0, i32 1
  %41 = load i32, ptr %40, align 4, !tbaa !14
  %42 = icmp eq i32 %41, 0
  br i1 %42, label %43, label %51

43:                                               ; preds = %37, %27
  %44 = load ptr, ptr %9, align 8, !tbaa !36
  %45 = call ptr @_(ptr noundef @.str.85)
  %46 = load ptr, ptr %8, align 8, !tbaa !13
  %47 = load ptr, ptr %7, align 8, !tbaa !26
  %48 = getelementptr inbounds nuw %struct.used_atom, ptr %47, i32 0, i32 1
  %49 = load ptr, ptr %48, align 8, !tbaa !31
  %50 = call i32 (ptr, i32, ptr, ...) @strbuf_addf_ret(ptr noundef %44, i32 noundef -1, ptr noundef %45, ptr noundef %46, ptr noundef %49)
  store i32 %50, ptr %5, align 4
  br label %74

51:                                               ; preds = %37
  %52 = load ptr, ptr %7, align 8, !tbaa !26
  %53 = getelementptr inbounds nuw %struct.used_atom, ptr %52, i32 0, i32 4
  %54 = getelementptr inbounds nuw %struct.anon.4, ptr %53, i32 0, i32 1
  %55 = load i32, ptr %54, align 4, !tbaa !14
  %56 = load i32, ptr @minimum_abbrev, align 4, !tbaa !15
  %57 = icmp ult i32 %55, %56
  br i1 %57, label %58, label %63

58:                                               ; preds = %51
  %59 = load i32, ptr @minimum_abbrev, align 4, !tbaa !15
  %60 = load ptr, ptr %7, align 8, !tbaa !26
  %61 = getelementptr inbounds nuw %struct.used_atom, ptr %60, i32 0, i32 4
  %62 = getelementptr inbounds nuw %struct.anon.4, ptr %61, i32 0, i32 1
  store i32 %59, ptr %62, align 4, !tbaa !14
  br label %63

63:                                               ; preds = %58, %51
  br label %71

64:                                               ; preds = %24
  %65 = load ptr, ptr %9, align 8, !tbaa !36
  %66 = load ptr, ptr %7, align 8, !tbaa !26
  %67 = getelementptr inbounds nuw %struct.used_atom, ptr %66, i32 0, i32 1
  %68 = load ptr, ptr %67, align 8, !tbaa !31
  %69 = load ptr, ptr %8, align 8, !tbaa !13
  %70 = call i32 @err_bad_arg(ptr noundef %65, ptr noundef %68, ptr noundef %69)
  store i32 %70, ptr %5, align 4
  br label %74

71:                                               ; preds = %63
  br label %72

72:                                               ; preds = %71, %20
  br label %73

73:                                               ; preds = %72, %12
  store i32 0, ptr %5, align 4
  br label %74

74:                                               ; preds = %73, %64, %43
  %75 = load i32, ptr %5, align 4
  ret i32 %75
}