; Function Attrs: nounwind uwtable
define internal range(i32 -1, 1) i32 @oid_atom_parser(ptr readnone captures(none) %0, ptr noundef captures(none) %1, ptr noundef %2, ptr noundef %3) #0 {
  %5 = alloca ptr, align 8
  %.not = icmp eq ptr %2, null
  br i1 %.not, label %6, label %8

6:                                                ; preds = %4
  %7 = getelementptr inbounds nuw i8, ptr %1, i64 24
  store i32 0, ptr %7, align 8, !tbaa !15
  br label %52

8:                                                ; preds = %4
  %9 = tail call i32 @strcmp(ptr noundef nonnull dereferenceable(1) %2, ptr noundef nonnull dereferenceable(6) @.str.75) #24
  %.not14 = icmp eq i32 %9, 0
  br i1 %.not14, label %10, label %.preheader.preheader

.preheader.preheader:                             ; preds = %8
  %scevgep = getelementptr i8, ptr %2, i64 6
  br label %.preheader

10:                                               ; preds = %8
  %11 = getelementptr inbounds nuw i8, ptr %1, i64 24
  store i32 2, ptr %11, align 8, !tbaa !15
  br label %52

.preheader:                                       ; preds = %.preheader.preheader, %12
  %.07.i = phi ptr [ %14, %12 ], [ %2, %.preheader.preheader ]
  %.06.i.idx = phi i64 [ %.06.i.add, %12 ], [ 0, %.preheader.preheader ]
  %exitcond = icmp eq i64 %.06.i.idx, 6
  br i1 %exitcond, label %17, label %12

12:                                               ; preds = %.preheader
  %.06.i.ptr = getelementptr inbounds nuw i8, ptr @.str.84, i64 %.06.i.idx
  %13 = load i8, ptr %.06.i.ptr, align 1, !tbaa !15
  %14 = getelementptr inbounds nuw i8, ptr %.07.i, i64 1
  %15 = load i8, ptr %.07.i, align 1, !tbaa !15
  %.06.i.add = add nuw nsw i64 %.06.i.idx, 1
  %16 = icmp eq i8 %15, %13
  br i1 %16, label %.preheader, label %skip_prefix.exit, !llvm.loop !31

17:                                               ; preds = %.preheader
  %18 = getelementptr inbounds nuw i8, ptr %1, i64 24
  store i32 1, ptr %18, align 8, !tbaa !15
  %19 = getelementptr inbounds nuw i8, ptr %1, i64 28
  call void @llvm.lifetime.start.p0(i64 8, ptr nonnull %5) #23
  %20 = tail call ptr @__errno_location() #26
  store i32 0, ptr %20, align 4, !tbaa !4
  %21 = tail call ptr @strchr(ptr noundef nonnull dereferenceable(1) %scevgep, i32 noundef 45) #24
  %.not.i16 = icmp eq ptr %21, null
  br i1 %.not.i16, label %22, label %strtoul_ui.exit.thread

22:                                               ; preds = %17
  %23 = call i64 @strtoul(ptr noundef nonnull %scevgep, ptr noundef nonnull %5, i32 noundef 10) #23
  %24 = load i32, ptr %20, align 4, !tbaa !4
  %.not8.i = icmp eq i32 %24, 0
  br i1 %.not8.i, label %25, label %strtoul_ui.exit.thread

25:                                               ; preds = %22
  %26 = load ptr, ptr %5, align 8, !tbaa !59
  %27 = load i8, ptr %26, align 1, !tbaa !15
  %.not9.i = icmp eq i8 %27, 0
  %28 = icmp ne ptr %26, %scevgep
  %or.cond.not13.i = and i1 %28, %.not9.i
  %.not10.i = icmp ult i64 %23, 4294967296
  %or.cond11.i = select i1 %or.cond.not13.i, i1 %.not10.i, i1 false
  br i1 %or.cond11.i, label %29, label %strtoul_ui.exit.thread

strtoul_ui.exit.thread:                           ; preds = %17, %25, %22
  call void @llvm.lifetime.end.p0(i64 8, ptr nonnull %5) #23
  br label %32

29:                                               ; preds = %25
  %30 = trunc nuw i64 %23 to i32
  store i32 %30, ptr %19, align 4, !tbaa !4
  call void @llvm.lifetime.end.p0(i64 8, ptr nonnull %5) #23
  %31 = icmp eq i64 %23, 0
  br i1 %31, label %32, label %38

32:                                               ; preds = %strtoul_ui.exit.thread, %29
  %33 = load i32, ptr @git_gettext_enabled, align 4, !tbaa !4
  %.not4.i = icmp eq i32 %33, 0
  br i1 %.not4.i, label %_.exit, label %34

34:                                               ; preds = %32
  %35 = tail call ptr @dcgettext(ptr noundef null, ptr noundef nonnull @.str.85, i32 noundef 5) #23
  br label %_.exit

_.exit:                                           ; preds = %32, %34
  %.0.i17 = phi ptr [ %35, %34 ], [ @.str.85, %32 ]
  %36 = getelementptr inbounds nuw i8, ptr %1, i64 8
  %37 = load ptr, ptr %36, align 8, !tbaa !30
  tail call void (ptr, i32, ptr, ...) @strbuf_addf_ret(ptr noundef %3, i32 poison, ptr noundef %.0.i17, ptr noundef nonnull %scevgep, ptr noundef %37)
  br label %52

38:                                               ; preds = %29
  %39 = load i32, ptr @minimum_abbrev, align 4, !tbaa !4
  %40 = icmp ugt i32 %39, %30
  br i1 %40, label %41, label %52

41:                                               ; preds = %38
  store i32 %39, ptr %19, align 4, !tbaa !15
  br label %52

skip_prefix.exit:                                 ; preds = %12
  %42 = getelementptr inbounds nuw i8, ptr %1, i64 8
  %43 = load ptr, ptr %42, align 8, !tbaa !30
  %44 = tail call ptr @strchrnul(ptr noundef %43, i32 noundef 58) #24
  %45 = load i32, ptr @git_gettext_enabled, align 4, !tbaa !4
  %.not4.i.i = icmp eq i32 %45, 0
  br i1 %.not4.i.i, label %err_bad_arg.exit, label %46

46:                                               ; preds = %skip_prefix.exit
  %47 = tail call ptr @dcgettext(ptr noundef null, ptr noundef nonnull @.str.81, i32 noundef 5) #23
  br label %err_bad_arg.exit

err_bad_arg.exit:                                 ; preds = %skip_prefix.exit, %46
  %.0.i.i = phi ptr [ %47, %46 ], [ @.str.81, %skip_prefix.exit ]
  %48 = ptrtoint ptr %44 to i64
  %49 = ptrtoint ptr %43 to i64
  %50 = sub i64 %48, %49
  %51 = trunc i64 %50 to i32
  tail call void (ptr, ptr, ...) @strbuf_addf(ptr noundef %3, ptr noundef %.0.i.i, i32 noundef %51, ptr noundef %43, ptr noundef nonnull %2) #23
  br label %52

52:                                               ; preds = %6, %41, %38, %10, %err_bad_arg.exit, %_.exit
  %.0 = phi i32 [ -1, %_.exit ], [ -1, %err_bad_arg.exit ], [ 0, %10 ], [ 0, %38 ], [ 0, %41 ], [ 0, %6 ]
  ret i32 %.0
}